; Function Attrs: mustprogress uwtable
define internal void @"_ZNSt17_Function_handlerIFN4lean8optionalINS0_4exprEEERKS2_jEZNS0_13ll_infer_typeERKNS0_16elab_environmentERKNS0_8list_refINS0_8pair_refINS0_4nameES2_EEEERNS0_6bufferIS2_Lm16EEEE3$_0E9_M_invokeERKSt9_Any_dataS5_Oj"(ptr dead_on_unwind noalias writable writeonly sret(%"class.lean::optional.59") align 8 captures(none) %0, ptr nonnull readnone align 8 captures(none) %1, ptr noundef nonnull align 8 dereferenceable(8) %2, ptr nonnull readonly align 4 captures(none) %3) #0 align 2 personality ptr @__gxx_personality_v0 {
  tail call void @llvm.experimental.noalias.scope.decl(metadata !139)
  tail call void @llvm.experimental.noalias.scope.decl(metadata !142)
  tail call void @llvm.experimental.noalias.scope.decl(metadata !145)
  %5 = load ptr, ptr @_ZN4leanL5g_botE, align 8, !tbaa !66, !noalias !148
  %6 = tail call noundef zeroext i1 @_ZN4lean8is_equalERKNS_4exprES2_(ptr noundef nonnull align 8 dereferenceable(8) %2, ptr noundef nonnull align 8 dereferenceable(8) %5), !noalias !148
  br i1 %6, label %_ZN4lean10object_refD2Ev.exit.i.i.i, label %"_ZSt10__invoke_rIN4lean8optionalINS0_4exprEEERZNS0_13ll_infer_typeERKNS0_16elab_environmentERKNS0_8list_refINS0_8pair_refINS0_4nameES2_EEEERNS0_6bufferIS2_Lm16EEEE3$_0JRKS2_jEENSt9enable_ifIXntsr7is_voidIT_EE5valueESM_E4typeEOT0_DpOT1_.exit"

_ZN4lean10object_refD2Ev.exit.i.i.i:              ; preds = %4
  %7 = getelementptr inbounds nuw i8, ptr %0, i64 8
  tail call void @_ZN4lean18mk_enf_object_typeEv(ptr dead_on_unwind nonnull writable sret(%"class.lean::expr") align 8 %7)
  br label %"_ZSt10__invoke_rIN4lean8optionalINS0_4exprEEERZNS0_13ll_infer_typeERKNS0_16elab_environmentERKNS0_8list_refINS0_8pair_refINS0_4nameES2_EEEERNS0_6bufferIS2_Lm16EEEE3$_0JRKS2_jEENSt9enable_ifIXntsr7is_voidIT_EE5valueESM_E4typeEOT0_DpOT1_.exit"

"_ZSt10__invoke_rIN4lean8optionalINS0_4exprEEERZNS0_13ll_infer_typeERKNS0_16elab_environmentERKNS0_8list_refINS0_8pair_refINS0_4nameES2_EEEERNS0_6bufferIS2_Lm16EEEE3$_0JRKS2_jEENSt9enable_ifIXntsr7is_voidIT_EE5valueESM_E4typeEOT0_DpOT1_.exit": ; preds = %4, %_ZN4lean10object_refD2Ev.exit.i.i.i
  %.sink.i.i.i = phi i8 [ 1, %_ZN4lean10object_refD2Ev.exit.i.i.i ], [ 0, %4 ]
  store i8 %.sink.i.i.i, ptr %0, align 8, !tbaa !111, !alias.scope !148
  ret void
}